target datalayout = "e-m:e-p270:32:32-p271:32:32-p272:64:64-i64:64-i128:128-f80:128-n8:16:32:64-S128"
target triple = "x86_64-pc-linux-gnu"

%struct._zval_struct = type { %union._zend_value, %union.anon.3, %union.anon.6 }
%union._zend_value = type { i64 }
%union.anon.3 = type { i32 }
%union.anon.6 = type { i32 }
%struct._zend_refcounted_h = type { i32, %union.anon }
%union.anon = type { i32 }
%struct._zend_object = type { %struct._zend_refcounted_h, i32, ptr, ptr, ptr, [1 x %struct._zval_struct] }
%struct._zend_execute_data = type { ptr, ptr, ptr, ptr, %struct._zval_struct, ptr, ptr, ptr, ptr }

; Function Attrs: nounwind uwtable
define hidden void @zim_SplObjectStorage_getHash(ptr noundef %0, ptr noundef %1) #0 {
  %3 = alloca ptr, align 8
  %4 = alloca ptr, align 8
  %5 = alloca ptr, align 8
  %6 = alloca ptr, align 8
  %7 = alloca i1, align 1
  %8 = alloca ptr, align 8
  %9 = alloca ptr, align 8
  %10 = alloca ptr, align 8
  %11 = alloca i8, align 1
  %12 = alloca ptr, align 8
  %13 = alloca ptr, align 8
  %14 = alloca ptr, align 8
  %15 = alloca i32, align 4
  %16 = alloca i32, align 4
  %17 = alloca i32, align 4
  %18 = alloca i32, align 4
  %19 = alloca i32, align 4
  %20 = alloca ptr, align 8
  %21 = alloca ptr, align 8
  %22 = alloca i32, align 4
  %23 = alloca ptr, align 8
  %24 = alloca i8, align 1
  %25 = alloca i8, align 1
  %26 = alloca i32, align 4
  %27 = alloca ptr, align 8
  %28 = alloca ptr, align 8
  store ptr %0, ptr %12, align 8
  store ptr %1, ptr %13, align 8
  br label %29

29:                                               ; preds = %2
  store i32 0, ptr %15, align 4
  store i32 1, ptr %16, align 4
  store i32 1, ptr %17, align 4
  %30 = load ptr, ptr %12, align 8
  %31 = getelementptr inbounds %struct._zend_execute_data, ptr %30, i32 0, i32 4
  %32 = getelementptr inbounds %struct._zval_struct, ptr %31, i32 0, i32 2
  %33 = load i32, ptr %32, align 4
  store i32 %33, ptr %18, align 4
  store i32 0, ptr %19, align 4
  store ptr null, ptr %21, align 8
  store i32 0, ptr %22, align 4
  store ptr null, ptr %23, align 8
  store i8 0, ptr %24, align 1
  store i8 0, ptr %25, align 1
  store i32 0, ptr %26, align 4
  br label %34

34:                                               ; preds = %29
  %35 = load i32, ptr %18, align 4
  %36 = load i32, ptr %16, align 4
  %37 = icmp ult i32 %35, %36
  %38 = xor i1 %37, true
  %39 = xor i1 %38, true
  %40 = zext i1 %39 to i32
  %41 = sext i32 %40 to i64
  %42 = icmp ne i64 %41, 0
  br i1 %42, label %52, label %43

43:                                               ; preds = %34
  %44 = load i32, ptr %18, align 4
  %45 = load i32, ptr %17, align 4
  %46 = icmp ugt i32 %44, %45
  %47 = xor i1 %46, true
  %48 = xor i1 %47, true
  %49 = zext i1 %48 to i32
  %50 = sext i32 %49 to i64
  %51 = icmp ne i64 %50, 0
  br i1 %51, label %52, label %55

52:                                               ; preds = %43, %34
  %53 = load i32, ptr %16, align 4
  %54 = load i32, ptr %17, align 4
  call void @zend_wrong_parameters_count_error(i32 noundef %53, i32 noundef %54)
  store i32 1, ptr %26, align 4
  br label %158

55:                                               ; preds = %43
  %56 = load ptr, ptr %12, align 8
  %57 = getelementptr inbounds %struct._zval_struct, ptr %56, i64 4
  store ptr %57, ptr %20, align 8
  %58 = load i32, ptr %19, align 4
  %59 = add i32 %58, 1
  store i32 %59, ptr %19, align 4
  %60 = load i32, ptr %19, align 4
  %61 = load i32, ptr %16, align 4
  %62 = icmp ule i32 %60, %61
  br i1 %62, label %68, label %63

63:                                               ; preds = %55
  %64 = load i8, ptr %25, align 1
  %65 = trunc i8 %64 to i1
  %66 = zext i1 %65 to i32
  %67 = icmp eq i32 %66, 1
  br label %68

68:                                               ; preds = %63, %55
  %69 = phi i1 [ true, %55 ], [ %67, %63 ]
  call void @llvm.assume(i1 %69)
  %70 = load i32, ptr %19, align 4
  %71 = load i32, ptr %16, align 4
  %72 = icmp ugt i32 %70, %71
  br i1 %72, label %78, label %73

73:                                               ; preds = %68
  %74 = load i8, ptr %25, align 1
  %75 = trunc i8 %74 to i1
  %76 = zext i1 %75 to i32
  %77 = icmp eq i32 %76, 0
  br label %78

78:                                               ; preds = %73, %68
  %79 = phi i1 [ true, %68 ], [ %77, %73 ]
  call void @llvm.assume(i1 %79)
  %80 = load i8, ptr %25, align 1
  %81 = trunc i8 %80 to i1
  br i1 %81, label %82, label %93

82:                                               ; preds = %78
  %83 = load i32, ptr %19, align 4
  %84 = load i32, ptr %18, align 4
  %85 = icmp ugt i32 %83, %84
  %86 = xor i1 %85, true
  %87 = xor i1 %86, true
  %88 = zext i1 %87 to i32
  %89 = sext i32 %88 to i64
  %90 = icmp ne i64 %89, 0
  br i1 %90, label %91, label %92

91:                                               ; preds = %82
  br label %158

92:                                               ; preds = %82
  br label %93

93:                                               ; preds = %92, %78
  %94 = load ptr, ptr %20, align 8
  %95 = getelementptr inbounds %struct._zval_struct, ptr %94, i32 1
  store ptr %95, ptr %20, align 8
  %96 = load ptr, ptr %20, align 8
  store ptr %96, ptr %21, align 8
  %97 = load ptr, ptr %21, align 8
  store ptr %97, ptr %8, align 8
  store ptr %14, ptr %9, align 8
  store ptr null, ptr %10, align 8
  store i8 0, ptr %11, align 1
  %98 = load ptr, ptr %8, align 8
  store ptr %98, ptr %5, align 8
  %99 = load ptr, ptr %5, align 8
  %100 = getelementptr inbounds %struct._zval_struct, ptr %99, i32 0, i32 1
  %101 = load i8, ptr %100, align 8
  %102 = zext i8 %101 to i32
  %103 = icmp eq i32 %102, 8
  br i1 %103, label %104, label %126

104:                                              ; preds = %93
  %105 = load ptr, ptr %10, align 8
  %106 = icmp ne ptr %105, null
  br i1 %106, label %107, label %122

107:                                              ; preds = %104
  %108 = load ptr, ptr %8, align 8
  %109 = load ptr, ptr %108, align 8
  %110 = getelementptr inbounds %struct._zend_object, ptr %109, i32 0, i32 2
  %111 = load ptr, ptr %110, align 8
  %112 = load ptr, ptr %10, align 8
  store ptr %111, ptr %3, align 8
  store ptr %112, ptr %4, align 8
  %113 = load ptr, ptr %3, align 8
  %114 = load ptr, ptr %4, align 8
  %115 = icmp eq ptr %113, %114
  br i1 %115, label %120, label %116

116:                                              ; preds = %107
  %117 = load ptr, ptr %3, align 8
  %118 = load ptr, ptr %4, align 8
  %119 = call zeroext i1 @instanceof_function_slow(ptr noundef %117, ptr noundef %118) #10
  br label %120

120:                                              ; preds = %116, %107
  %121 = phi i1 [ true, %107 ], [ %119, %116 ]
  br i1 %121, label %122, label %126

122:                                              ; preds = %120, %104
  %123 = load ptr, ptr %8, align 8
  %124 = load ptr, ptr %123, align 8
  %125 = load ptr, ptr %9, align 8
  store ptr %124, ptr %125, align 8
  br label %139

126:                                              ; preds = %120, %93
  %127 = load i8, ptr %11, align 1
  %128 = trunc i8 %127 to i1
  br i1 %128, label %129, label %138

129:                                              ; preds = %126
  %130 = load ptr, ptr %8, align 8
  store ptr %130, ptr %6, align 8
  %131 = load ptr, ptr %6, align 8
  %132 = getelementptr inbounds %struct._zval_struct, ptr %131, i32 0, i32 1
  %133 = load i8, ptr %132, align 8
  %134 = zext i8 %133 to i32
  %135 = icmp eq i32 %134, 1
  br i1 %135, label %136, label %138

136:                                              ; preds = %129
  %137 = load ptr, ptr %9, align 8
  store ptr null, ptr %137, align 8
  br label %139

138:                                              ; preds = %129, %126
  store i1 false, ptr %7, align 1
  br label %140

139:                                              ; preds = %136, %122
  store i1 true, ptr %7, align 1
  br label %140

140:                                              ; preds = %139, %138
  %141 = load i1, ptr %7, align 1
  %142 = xor i1 %141, true
  %143 = xor i1 %142, true
  %144 = xor i1 %143, true
  %145 = zext i1 %144 to i32
  %146 = sext i32 %145 to i64
  %147 = icmp ne i64 %146, 0
  br i1 %147, label %148, label %149

148:                                              ; preds = %140
  store i32 18, ptr %22, align 4
  store i32 9, ptr %26, align 4
  br label %158

149:                                              ; preds = %140
  %150 = load i32, ptr %19, align 4
  %151 = load i32, ptr %17, align 4
  %152 = icmp eq i32 %150, %151
  br i1 %152, label %156, label %153

153:                                              ; preds = %149
  %154 = load i32, ptr %17, align 4
  %155 = icmp eq i32 %154, -1
  br label %156

156:                                              ; preds = %153, %149
  %157 = phi i1 [ true, %149 ], [ %155, %153 ]
  call void @llvm.assume(i1 %157)
  br label %158

158:                                              ; preds = %156, %148, %91, %52
  %159 = load i32, ptr %26, align 4
  %160 = icmp ne i32 %159, 0
  %161 = xor i1 %160, true
  %162 = xor i1 %161, true
  %163 = zext i1 %162 to i32
  %164 = sext i32 %163 to i64
  %165 = icmp ne i64 %164, 0
  br i1 %165, label %166, label %172

166:                                              ; preds = %158
  %167 = load i32, ptr %26, align 4
  %168 = load i32, ptr %19, align 4
  %169 = load ptr, ptr %23, align 8
  %170 = load i32, ptr %22, align 4
  %171 = load ptr, ptr %21, align 8
  call void @zend_wrong_parameter_error(i32 noundef %167, i32 noundef %168, ptr noundef %169, i32 noundef %170, ptr noundef %171)
  br label %185

172:                                              ; preds = %158
  br label %173

173:                                              ; preds = %172
  br label %174

174:                                              ; preds = %173
  br label %175

175:                                              ; preds = %174
  %176 = load ptr, ptr %13, align 8
  store ptr %176, ptr %27, align 8
  %177 = load ptr, ptr %14, align 8
  %178 = call ptr @php_spl_object_hash(ptr noundef %177)
  store ptr %178, ptr %28, align 8
  %179 = load ptr, ptr %28, align 8
  %180 = load ptr, ptr %27, align 8
  %181 = getelementptr inbounds %struct._zval_struct, ptr %180, i32 0, i32 0
  store ptr %179, ptr %181, align 8
  %182 = load ptr, ptr %27, align 8
  %183 = getelementptr inbounds %struct._zval_struct, ptr %182, i32 0, i32 1
  store i32 262, ptr %183, align 8
  br label %184

184:                                              ; preds = %175
  br label %185

185:                                              ; preds = %184, %166
  ret void
}