; Function Attrs: nounwind uwtable
define hidden void @zim_SplObjectStorage_getHash(ptr noundef %0, ptr nocapture noundef writeonly %1) #0 {
  %3 = getelementptr inbounds i8, ptr %0, i64 44
  %4 = load i32, ptr %3, align 4
  %cond = icmp eq i32 %4, 1
  br i1 %cond, label %5, label %.thread

.thread:                                          ; preds = %2
  tail call void @zend_wrong_parameters_count_error(i32 noundef 1, i32 noundef 1) #10
  br label %9

5:                                                ; preds = %2
  %6 = getelementptr inbounds i8, ptr %0, i64 80
  %7 = getelementptr inbounds i8, ptr %0, i64 88
  %8 = load i8, ptr %7, align 8
  %.not56 = icmp eq i8 %8, 8
  br i1 %.not56, label %10, label %9

9:                                                ; preds = %5, %.thread
  %.04969 = phi i32 [ 0, %.thread ], [ 1, %5 ]
  %.05068 = phi i32 [ 1, %.thread ], [ 9, %5 ]
  %.05167 = phi ptr [ null, %.thread ], [ %6, %5 ]
  %.05266 = phi i32 [ 0, %.thread ], [ 18, %5 ]
  tail call void @zend_wrong_parameter_error(i32 noundef %.05068, i32 noundef %.04969, ptr noundef null, i32 noundef %.05266, ptr noundef %.05167) #10
  br label %14

10:                                               ; preds = %5
  %11 = load ptr, ptr %6, align 8
  %12 = tail call ptr @php_spl_object_hash(ptr noundef %11) #10
  store ptr %12, ptr %1, align 8
  %13 = getelementptr inbounds i8, ptr %1, i64 8
  store i32 262, ptr %13, align 8
  br label %14

14:                                               ; preds = %10, %9
  ret void
}